---
triple:          'arm64-apple-darwin'
binary-path:     '/Users/zet/Studia/KZW/lab1_264193_264238/output/lab1'
relocations:
  - { offsetInCU: 0x100EA, offset: 0x100EA, size: 0x8, addend: 0x0, symName: __ZNSt3__111__introsortINS_17_ClassicAlgPolicyERZN11rozwiazanie5sortREvEUlNS2_4daneES3_E_PS3_EEvT1_S7_T0_NS_15iterator_traitsIS7_E15difference_typeE, symObjAddr: 0x1A20, symBinAddr: 0x10000254C, symSize: 0x75C }
  - { offsetInCU: 0x10E8D, offset: 0x10E8D, size: 0x8, addend: 0x0, symName: __ZNSt3__118__insertion_sort_3B7v160006INS_17_ClassicAlgPolicyERZN11rozwiazanie5sortREvEUlNS2_4daneES3_E_PS3_EEvT1_S7_T0_, symObjAddr: 0x217C, symBinAddr: 0x100002CA8, symSize: 0x124 }
  - { offsetInCU: 0x111BC, offset: 0x111BC, size: 0x8, addend: 0x0, symName: __ZNSt3__127__insertion_sort_incompleteIRZN11rozwiazanie5sortREvEUlNS1_4daneES2_E_PS2_EEbT0_S6_T_, symObjAddr: 0x22A0, symBinAddr: 0x100002DCC, symSize: 0x35C }
  - { offsetInCU: 0x119C8, offset: 0x119C8, size: 0x8, addend: 0x0, symName: __ZNSt3__124__put_character_sequenceB7v160006IcNS_11char_traitsIcEEEERNS_13basic_ostreamIT_T0_EES7_PKS4_m, symObjAddr: 0x2B7C, symBinAddr: 0x1000036A8, symSize: 0x164 }
  - { offsetInCU: 0x13CC9, offset: 0x13CC9, size: 0x8, addend: 0x0, symName: __ZNSt3__120__throw_length_errorB7v160006EPKc, symObjAddr: 0x5BC, symBinAddr: 0x1000010E8, symSize: 0x50 }
  - { offsetInCU: 0x157D2, offset: 0x157D2, size: 0x8, addend: 0x0, symName: __ZNSt3__17getlineB7v160006IcNS_11char_traitsIcEENS_9allocatorIcEEEERNS_13basic_istreamIT_T0_EES9_RNS_12basic_stringIS6_S7_T1_EES6_, symObjAddr: 0x150C, symBinAddr: 0x100002038, symSize: 0x188 }
  - { offsetInCU: 0x15ACC, offset: 0x15ACC, size: 0x8, addend: 0x0, symName: __ZNSt3__120__throw_out_of_rangeB7v160006EPKc, symObjAddr: 0x19AC, symBinAddr: 0x1000024D8, symSize: 0x50 }
  - { offsetInCU: 0x15E9A, offset: 0x15E9A, size: 0x8, addend: 0x0, symName: __ZNSt3__17__sort4B7v160006INS_17_ClassicAlgPolicyERZN11rozwiazanie5sortREvEUlNS2_4daneES3_E_PS3_EEjT1_S7_S7_S7_T0_, symObjAddr: 0x25FC, symBinAddr: 0x100003128, symSize: 0x194 }
  - { offsetInCU: 0x16279, offset: 0x16279, size: 0x8, addend: 0x0, symName: __ZNSt3__119__partial_sort_implB7v160006INS_17_ClassicAlgPolicyERZN11rozwiazanie5sortREvEUlNS2_4daneES3_E_PS3_S6_EET1_S7_S7_T2_OT0_, symObjAddr: 0x2790, symBinAddr: 0x1000032BC, symSize: 0x3EC }
  - { offsetInCU: 0x16805, offset: 0x16805, size: 0x8, addend: 0x0, symName: __ZNSt3__116__pad_and_outputB7v160006IcNS_11char_traitsIcEEEENS_19ostreambuf_iteratorIT_T0_EES6_PKS4_S8_S8_RNS_8ios_baseES4_, symObjAddr: 0x2CE0, symBinAddr: 0x10000380C, symSize: 0x194 }
  - { offsetInCU: 0x173C2, offset: 0x173C2, size: 0x8, addend: 0x0, symName: __ZSt28__throw_bad_array_new_lengthB7v160006v, symObjAddr: 0x630, symBinAddr: 0x10000115C, symSize: 0x28 }
  - { offsetInCU: 0x1AB7B, offset: 0x1AB7B, size: 0x8, addend: 0x0, symName: _main, symObjAddr: 0x0, symBinAddr: 0x100000B2C, symSize: 0x148 }
  - { offsetInCU: 0x1B9C5, offset: 0x1B9C5, size: 0x8, addend: 0x0, symName: __ZN20wszystkieRozwiazaniaC2ENSt3__112basic_stringIcNS0_11char_traitsIcEENS0_9allocatorIcEEEEi, symObjAddr: 0x664, symBinAddr: 0x100001190, symSize: 0x340 }
  - { offsetInCU: 0x1CF0F, offset: 0x1CF0F, size: 0x8, addend: 0x0, symName: __ZN20wszystkieRozwiazania16rozwiazWszystkieEi, symObjAddr: 0x148, symBinAddr: 0x100000C74, symSize: 0x3DC }
  - { offsetInCU: 0x1E348, offset: 0x1E348, size: 0x8, addend: 0x0, symName: __ZN20wszystkieRozwiazaniaD1Ev, symObjAddr: 0x524, symBinAddr: 0x100001050, symSize: 0x84 }
  - { offsetInCU: 0x1EB16, offset: 0x1EB16, size: 0x8, addend: 0x0, symName: __ZN11rozwiazanie8loadDataENSt3__112basic_stringIcNS0_11char_traitsIcEENS0_9allocatorIcEEEE, symObjAddr: 0xCB8, symBinAddr: 0x1000017E4, symSize: 0x5D0 }
  - { offsetInCU: 0x201C9, offset: 0x201C9, size: 0x8, addend: 0x0, symName: __ZNKSt3__112basic_stringIcNS_11char_traitsIcEENS_9allocatorIcEEE20__throw_length_errorB7v160006Ev, symObjAddr: 0x5A8, symBinAddr: 0x1000010D4, symSize: 0x14 }
  - { offsetInCU: 0x201F3, offset: 0x201F3, size: 0x8, addend: 0x0, symName: __ZNSt3__120__throw_length_errorB7v160006EPKc, symObjAddr: 0x5BC, symBinAddr: 0x1000010E8, symSize: 0x50 }
  - { offsetInCU: 0x201FE, offset: 0x201FE, size: 0x8, addend: 0x0, symName: __ZNSt12length_errorC1B7v160006EPKc, symObjAddr: 0x60C, symBinAddr: 0x100001138, symSize: 0x24 }
  - { offsetInCU: 0x204BE, offset: 0x204BE, size: 0x8, addend: 0x0, symName: __ZNSt3__16vectorINS_12basic_stringIcNS_11char_traitsIcEENS_9allocatorIcEEEENS4_IS6_EEE21__push_back_slow_pathIRKS6_EEvOT_, symObjAddr: 0xA18, symBinAddr: 0x100001544, symSize: 0x228 }
  - { offsetInCU: 0x20EF6, offset: 0x20EF6, size: 0x8, addend: 0x0, symName: __ZNSt3__16vectorINS_12basic_stringIcNS_11char_traitsIcEENS_9allocatorIcEEEENS4_IS6_EEED1B7v160006Ev, symObjAddr: 0x9A4, symBinAddr: 0x1000014D0, symSize: 0x74 }
  - { offsetInCU: 0x214D1, offset: 0x214D1, size: 0x8, addend: 0x0, symName: __ZNKSt3__16vectorINS_12basic_stringIcNS_11char_traitsIcEENS_9allocatorIcEEEENS4_IS6_EEE20__throw_length_errorB7v160006Ev, symObjAddr: 0xCA4, symBinAddr: 0x1000017D0, symSize: 0x14 }
  - { offsetInCU: 0x214FB, offset: 0x214FB, size: 0x8, addend: 0x0, symName: __ZN11rozwiazanie8loadDataENSt3__112basic_stringIcNS0_11char_traitsIcEENS0_9allocatorIcEEEE, symObjAddr: 0xCB8, symBinAddr: 0x1000017E4, symSize: 0x5D0 }
  - { offsetInCU: 0x21506, offset: 0x21506, size: 0x8, addend: 0x0, symName: __ZNSt3__114__split_bufferINS_12basic_stringIcNS_11char_traitsIcEENS_9allocatorIcEEEERNS4_IS6_EEED1Ev, symObjAddr: 0xC40, symBinAddr: 0x10000176C, symSize: 0x64 }
  - { offsetInCU: 0x21DC5, offset: 0x21DC5, size: 0x8, addend: 0x0, symName: __ZNSt3__113basic_fstreamIcNS_11char_traitsIcEEEC1ERKNS_12basic_stringIcS2_NS_9allocatorIcEEEEj, symObjAddr: 0x1288, symBinAddr: 0x100001DB4, symSize: 0x11C }
  - { offsetInCU: 0x21F5A, offset: 0x21F5A, size: 0x8, addend: 0x0, symName: __ZNSt3__118basic_stringstreamIcNS_11char_traitsIcEENS_9allocatorIcEEEC1B7v160006ERKNS_12basic_stringIcS2_S4_EEj, symObjAddr: 0x13A4, symBinAddr: 0x100001ED0, symSize: 0x168 }
  - { offsetInCU: 0x2219F, offset: 0x2219F, size: 0x8, addend: 0x0, symName: __ZNKSt3__16vectorINS_12basic_stringIcNS_11char_traitsIcEENS_9allocatorIcEEEENS4_IS6_EEE20__throw_out_of_rangeB7v160006Ev, symObjAddr: 0x1998, symBinAddr: 0x1000024C4, symSize: 0x14 }
  - { offsetInCU: 0x221C9, offset: 0x221C9, size: 0x8, addend: 0x0, symName: __ZNSt3__120__throw_out_of_rangeB7v160006EPKc, symObjAddr: 0x19AC, symBinAddr: 0x1000024D8, symSize: 0x50 }
  - { offsetInCU: 0x221D4, offset: 0x221D4, size: 0x8, addend: 0x0, symName: __ZNKSt3__16vectorIN11rozwiazanie4daneENS_9allocatorIS2_EEE20__throw_length_errorB7v160006Ev, symObjAddr: 0x1984, symBinAddr: 0x1000024B0, symSize: 0x14 }
  - { offsetInCU: 0x221FE, offset: 0x221FE, size: 0x8, addend: 0x0, symName: __ZNKSt3__16vectorINS_12basic_stringIcNS_11char_traitsIcEENS_9allocatorIcEEEENS4_IS6_EEE20__throw_out_of_rangeB7v160006Ev, symObjAddr: 0x1998, symBinAddr: 0x1000024C4, symSize: 0x14 }
  - { offsetInCU: 0x22209, offset: 0x22209, size: 0x8, addend: 0x0, symName: __ZNSt3__113basic_fstreamIcNS_11char_traitsIcEEED1Ev, symObjAddr: 0x171C, symBinAddr: 0x100002248, symSize: 0x68 }
  - { offsetInCU: 0x22250, offset: 0x22250, size: 0x8, addend: 0x0, symName: __ZNSt3__118basic_stringstreamIcNS_11char_traitsIcEENS_9allocatorIcEEED1Ev, symObjAddr: 0x1694, symBinAddr: 0x1000021C0, symSize: 0x88 }
  - { offsetInCU: 0x22667, offset: 0x22667, size: 0x8, addend: 0x0, symName: __ZNSt3__113basic_fstreamIcNS_11char_traitsIcEEED0Ev, symObjAddr: 0x1784, symBinAddr: 0x1000022B0, symSize: 0x68 }
  - { offsetInCU: 0x226CA, offset: 0x226CA, size: 0x8, addend: 0x0, symName: __ZThn16_NSt3__113basic_fstreamIcNS_11char_traitsIcEEED1Ev, symObjAddr: 0x17EC, symBinAddr: 0x100002318, symSize: 0x5C }
  - { offsetInCU: 0x22742, offset: 0x22742, size: 0x8, addend: 0x0, symName: __ZThn16_NSt3__113basic_fstreamIcNS_11char_traitsIcEEED0Ev, symObjAddr: 0x1848, symBinAddr: 0x100002374, symSize: 0x64 }
  - { offsetInCU: 0x227BC, offset: 0x227BC, size: 0x8, addend: 0x0, symName: __ZTv0_n24_NSt3__113basic_fstreamIcNS_11char_traitsIcEEED1Ev, symObjAddr: 0x18AC, symBinAddr: 0x1000023D8, symSize: 0x68 }
  - { offsetInCU: 0x22816, offset: 0x22816, size: 0x8, addend: 0x0, symName: __ZTv0_n24_NSt3__113basic_fstreamIcNS_11char_traitsIcEEED0Ev, symObjAddr: 0x1914, symBinAddr: 0x100002440, symSize: 0x70 }
  - { offsetInCU: 0x2288C, offset: 0x2288C, size: 0x8, addend: 0x0, symName: __ZNSt12out_of_rangeC1B7v160006EPKc, symObjAddr: 0x19FC, symBinAddr: 0x100002528, symSize: 0x24 }
...
